; Function Attrs: mustprogress uwtable
define hidden noundef zeroext i1 @_ZN2cv11bioinspired12RetinaFilter10checkInputERKSt8valarrayIfEb(ptr noundef nonnull readonly align 8 captures(none) dereferenceable(1217) %0, ptr noundef nonnull readonly align 8 captures(none) dereferenceable(16) %1, i1 zeroext %2) local_unnamed_addr #3 align 2 {
  %4 = getelementptr inbounds nuw i8, ptr %0, i64 48
  %5 = getelementptr inbounds nuw i8, ptr %0, i64 1200
  %6 = load ptr, ptr %5, align 8, !tbaa !11
  %.not = icmp eq ptr %6, null
  %7 = getelementptr inbounds nuw i8, ptr %6, i64 8
  %spec.select = select i1 %.not, ptr %4, ptr %7
  %8 = load i64, ptr %1, align 8, !tbaa !3
  %9 = getelementptr inbounds nuw i8, ptr %spec.select, i64 48
  %10 = load i64, ptr %9, align 8, !tbaa !68
  %11 = and i64 %10, 4294967295
  %12 = icmp eq i64 %8, %11
  %13 = mul i64 %10, 3
  %14 = and i64 %13, 4294967295
  %15 = icmp eq i64 %8, %14
  %or.cond = or i1 %12, %15
  br i1 %or.cond, label %.thread, label %16

16:                                               ; preds = %3
  %17 = tail call noundef nonnull align 8 dereferenceable(8) ptr @_ZSt16__ostream_insertIcSt11char_traitsIcEERSt13basic_ostreamIT_T0_ES6_PKS3_l(ptr noundef nonnull align 8 dereferenceable(8) @_ZSt4cerr, ptr noundef nonnull @.str.1, i64 noundef 92)
  %18 = load ptr, ptr @_ZSt4cerr, align 8, !tbaa !26
  %19 = getelementptr i8, ptr %18, i64 -24
  %20 = load i64, ptr %19, align 8
  %21 = getelementptr inbounds i8, ptr @_ZSt4cerr, i64 %20
  %22 = getelementptr inbounds nuw i8, ptr %21, i64 240
  %23 = load ptr, ptr %22, align 8, !tbaa !28
  %.not.i.i.i = icmp eq ptr %23, null
  br i1 %.not.i.i.i, label %24, label %_ZSt13__check_facetISt5ctypeIcEERKT_PS3_.exit.i.i

24:                                               ; preds = %16
  tail call void @_ZSt16__throw_bad_castv() #20
  unreachable

_ZSt13__check_facetISt5ctypeIcEERKT_PS3_.exit.i.i: ; preds = %16
  %25 = getelementptr inbounds nuw i8, ptr %23, i64 56
  %26 = load i8, ptr %25, align 8, !tbaa !43
  %.not.i1.i.i = icmp eq i8 %26, 0
  br i1 %.not.i1.i.i, label %30, label %27

27:                                               ; preds = %_ZSt13__check_facetISt5ctypeIcEERKT_PS3_.exit.i.i
  %28 = getelementptr inbounds nuw i8, ptr %23, i64 67
  %29 = load i8, ptr %28, align 1, !tbaa !48
  br label %_ZSt4endlIcSt11char_traitsIcEERSt13basic_ostreamIT_T0_ES6_.exit

30:                                               ; preds = %_ZSt13__check_facetISt5ctypeIcEERKT_PS3_.exit.i.i
  tail call void @_ZNKSt5ctypeIcE13_M_widen_initEv(ptr noundef nonnull align 8 dereferenceable(570) %23)
  %31 = load ptr, ptr %23, align 8, !tbaa !26
  %32 = getelementptr inbounds nuw i8, ptr %31, i64 48
  %33 = load ptr, ptr %32, align 8
  %34 = tail call noundef signext i8 %33(ptr noundef nonnull align 8 dereferenceable(570) %23, i8 noundef signext 10)
  br label %_ZSt4endlIcSt11char_traitsIcEERSt13basic_ostreamIT_T0_ES6_.exit

_ZSt4endlIcSt11char_traitsIcEERSt13basic_ostreamIT_T0_ES6_.exit: ; preds = %27, %30
  %.0.i.i.i = phi i8 [ %29, %27 ], [ %34, %30 ]
  %35 = tail call noundef nonnull align 8 dereferenceable(8) ptr @_ZNSo3putEc(ptr noundef nonnull align 8 dereferenceable(8) @_ZSt4cerr, i8 noundef signext %.0.i.i.i)
  %36 = tail call noundef nonnull align 8 dereferenceable(8) ptr @_ZNSo5flushEv(ptr noundef nonnull align 8 dereferenceable(8) %35)
  %37 = tail call noundef nonnull align 8 dereferenceable(8) ptr @_ZSt16__ostream_insertIcSt11char_traitsIcEERSt13basic_ostreamIT_T0_ES6_PKS3_l(ptr noundef nonnull align 8 dereferenceable(8) @_ZSt4cout, ptr noundef nonnull @.str.2, i64 noundef 37)
  %38 = load i64, ptr %1, align 8, !tbaa !3
  %39 = tail call noundef nonnull align 8 dereferenceable(8) ptr @_ZNSo9_M_insertImEERSoT_(ptr noundef nonnull align 8 dereferenceable(8) @_ZSt4cout, i64 noundef %38)
  %40 = tail call noundef nonnull align 8 dereferenceable(8) ptr @_ZSt16__ostream_insertIcSt11char_traitsIcEERSt13basic_ostreamIT_T0_ES6_PKS3_l(ptr noundef nonnull align 8 dereferenceable(8) %39, ptr noundef nonnull @.str.3, i64 noundef 3)
  %41 = tail call noundef nonnull align 8 dereferenceable(8) ptr @_ZSt16__ostream_insertIcSt11char_traitsIcEERSt13basic_ostreamIT_T0_ES6_PKS3_l(ptr noundef nonnull align 8 dereferenceable(8) %39, ptr noundef nonnull @.str.4, i64 noundef 12)
  %42 = load i64, ptr %9, align 8, !tbaa !68
  %43 = and i64 %42, 4294967295
  %44 = tail call noundef nonnull align 8 dereferenceable(8) ptr @_ZNSo9_M_insertImEERSoT_(ptr noundef nonnull align 8 dereferenceable(8) %39, i64 noundef %43)
  %45 = load ptr, ptr %44, align 8, !tbaa !26
  %46 = getelementptr i8, ptr %45, i64 -24
  %47 = load i64, ptr %46, align 8
  %48 = getelementptr inbounds i8, ptr %44, i64 %47
  %49 = getelementptr inbounds nuw i8, ptr %48, i64 240
  %50 = load ptr, ptr %49, align 8, !tbaa !28
  %.not.i.i.i10 = icmp eq ptr %50, null
  br i1 %.not.i.i.i10, label %51, label %_ZSt13__check_facetISt5ctypeIcEERKT_PS3_.exit.i.i11

51:                                               ; preds = %_ZSt4endlIcSt11char_traitsIcEERSt13basic_ostreamIT_T0_ES6_.exit
  tail call void @_ZSt16__throw_bad_castv() #20
  unreachable

_ZSt13__check_facetISt5ctypeIcEERKT_PS3_.exit.i.i11: ; preds = %_ZSt4endlIcSt11char_traitsIcEERSt13basic_ostreamIT_T0_ES6_.exit
  %52 = getelementptr inbounds nuw i8, ptr %50, i64 56
  %53 = load i8, ptr %52, align 8, !tbaa !43
  %.not.i1.i.i12 = icmp eq i8 %53, 0
  br i1 %.not.i1.i.i12, label %57, label %54

54:                                               ; preds = %_ZSt13__check_facetISt5ctypeIcEERKT_PS3_.exit.i.i11
  %55 = getelementptr inbounds nuw i8, ptr %50, i64 67
  %56 = load i8, ptr %55, align 1, !tbaa !48
  br label %_ZSt4endlIcSt11char_traitsIcEERSt13basic_ostreamIT_T0_ES6_.exit14

57:                                               ; preds = %_ZSt13__check_facetISt5ctypeIcEERKT_PS3_.exit.i.i11
  tail call void @_ZNKSt5ctypeIcE13_M_widen_initEv(ptr noundef nonnull align 8 dereferenceable(570) %50)
  %58 = load ptr, ptr %50, align 8, !tbaa !26
  %59 = getelementptr inbounds nuw i8, ptr %58, i64 48
  %60 = load ptr, ptr %59, align 8
  %61 = tail call noundef signext i8 %60(ptr noundef nonnull align 8 dereferenceable(570) %50, i8 noundef signext 10)
  br label %_ZSt4endlIcSt11char_traitsIcEERSt13basic_ostreamIT_T0_ES6_.exit14

_ZSt4endlIcSt11char_traitsIcEERSt13basic_ostreamIT_T0_ES6_.exit14: ; preds = %54, %57
  %.0.i.i.i13 = phi i8 [ %56, %54 ], [ %61, %57 ]
  %62 = tail call noundef nonnull align 8 dereferenceable(8) ptr @_ZNSo3putEc(ptr noundef nonnull align 8 dereferenceable(8) %44, i8 noundef signext %.0.i.i.i13)
  %63 = tail call noundef nonnull align 8 dereferenceable(8) ptr @_ZNSo5flushEv(ptr noundef nonnull align 8 dereferenceable(8) %62)
  br label %.thread

.thread:                                          ; preds = %3, %_ZSt4endlIcSt11char_traitsIcEERSt13basic_ostreamIT_T0_ES6_.exit14
  ret i1 %or.cond
}